target datalayout = "e-m:e-p270:32:32-p271:32:32-p272:64:64-i64:64-i128:128-f80:128-n8:16:32:64-S128"
target triple = "x86_64-pc-linux-gnu"

%struct.H5C_class_t = type { i32, ptr, i32, i32, ptr, ptr, ptr, ptr, ptr, ptr, ptr, ptr, ptr, ptr }
%struct.H5FA_dbk_page_t = type { %struct.H5C_cache_entry_t, ptr, ptr, ptr, i64, i64, i64 }
%struct.H5C_cache_entry_t = type { ptr, i64, i64, ptr, i8, ptr, i8, i8, i8, i8, i32, i8, i8, i8, i8, i8, i32, ptr, i32, i32, i32, i32, i32, i8, i8, ptr, ptr, ptr, ptr, ptr, ptr, i8, i32, i8, i64, ptr, i64, i64, i32, i8, i32, i32, i8, ptr, ptr, ptr }
%struct.H5FA_hdr_t = type { %struct.H5C_cache_entry_t, %struct.H5FA_create_t, i64, %struct.H5FA_stat_t, i64, i64, i64, ptr, i64, i8, i64, i64, ptr, i8, ptr, ptr }
%struct.H5FA_create_t = type { ptr, i8, i8, i64 }
%struct.H5FA_stat_t = type { i64, i64, i64 }

@.str.1 = private unnamed_addr constant [106 x i8] c"generated/home/dtcxzyw/WorkSpace/Projects/compilers/llvm-opt-benchmark/bench/hdf5/hdf5/src/H5FAdblkpage.c\00", align 1
@H5E_FARRAY_g = external global i64, align 8
@H5AC_FARRAY_DBLK_PAGE = external constant [1 x %struct.H5C_class_t], align 16
@H5E_CANTUNPROTECT_g = external global i64, align 8
@.str.11 = private unnamed_addr constant [64 x i8] c"unable to unprotect fixed array data block page, address = %llu\00", align 1
@__func__.H5FA__dblk_page_unprotect = private unnamed_addr constant [26 x i8] c"H5FA__dblk_page_unprotect\00", align 1

; Function Attrs: nounwind uwtable
define i32 @H5FA__dblk_page_unprotect(ptr noundef %0, i32 noundef %1) #0 {
  %3 = alloca ptr, align 8
  %4 = alloca i32, align 4
  %5 = alloca i32, align 4
  %6 = alloca i8, align 1
  store ptr %0, ptr %3, align 8
  store i32 %1, ptr %4, align 4
  store i32 0, ptr %5, align 4
  store i8 0, ptr %6, align 1
  %7 = load ptr, ptr %3, align 8
  %8 = getelementptr inbounds %struct.H5FA_dbk_page_t, ptr %7, i32 0, i32 2
  %9 = load ptr, ptr %8, align 8
  %10 = getelementptr inbounds %struct.H5FA_hdr_t, ptr %9, i32 0, i32 7
  %11 = load ptr, ptr %10, align 8
  %12 = load ptr, ptr %3, align 8
  %13 = getelementptr inbounds %struct.H5FA_dbk_page_t, ptr %12, i32 0, i32 4
  %14 = load i64, ptr %13, align 8
  %15 = load ptr, ptr %3, align 8
  %16 = load i32, ptr %4, align 4
  %17 = call i32 @H5AC_unprotect(ptr noundef %11, ptr noundef @H5AC_FARRAY_DBLK_PAGE, i64 noundef %14, ptr noundef %15, i32 noundef %16)
  %18 = icmp slt i32 %17, 0
  br i1 %18, label %19, label %37

19:                                               ; preds = %2
  br label %20

20:                                               ; preds = %19
  br label %21

21:                                               ; preds = %20
  br label %22

22:                                               ; preds = %21
  %23 = load i64, ptr @H5E_FARRAY_g, align 8
  %24 = load i64, ptr @H5E_CANTUNPROTECT_g, align 8
  %25 = load ptr, ptr %3, align 8
  %26 = getelementptr inbounds %struct.H5FA_dbk_page_t, ptr %25, i32 0, i32 4
  %27 = load i64, ptr %26, align 8
  %28 = call i32 (ptr, ptr, i32, i64, i64, ptr, ...) @H5E_printf_stack(ptr noundef @.str.1, ptr noundef @__func__.H5FA__dblk_page_unprotect, i32 noundef 293, i64 noundef %23, i64 noundef %24, ptr noundef @.str.11, i64 noundef %27)
  br label %29

29:                                               ; preds = %22
  store i8 1, ptr %6, align 1
  %30 = load i8, ptr %6, align 1
  %31 = trunc i8 %30 to i1
  %32 = zext i1 %31 to i8
  store i8 %32, ptr %6, align 1
  br label %33

33:                                               ; preds = %29
  br label %34

34:                                               ; preds = %33
  store i32 -1, ptr %5, align 4
  br label %38

35:                                               ; No predecessors!
  br label %36

36:                                               ; preds = %35
  br label %37

37:                                               ; preds = %36, %2
  br label %38

38:                                               ; preds = %37, %34
  %39 = load i32, ptr %5, align 4
  ret i32 %39
}